; ModuleID = '41/41.cpp'
source_filename = "41/41.cpp"
target datalayout = "e-m:e-p270:32:32-p271:32:32-p272:64:64-i64:64-f80:128-n8:16:32:64-S128"
target triple = "x86_64-pc-linux-gnu"

%"class.std::ios_base::Init" = type { i8 }
%"class.std::basic_ostream" = type { i32 (...)**, %"class.std::basic_ios" }
%"class.std::basic_ios" = type { %"class.std::ios_base", %"class.std::basic_ostream"*, i8, i8, %"class.std::basic_streambuf"*, %"class.std::ctype"*, %"class.std::num_put"*, %"class.std::num_get"* }
%"class.std::ios_base" = type { i32 (...)**, i64, i64, i32, i32, i32, %"struct.std::ios_base::_Callback_list"*, %"struct.std::ios_base::_Words", [8 x %"struct.std::ios_base::_Words"], i32, %"struct.std::ios_base::_Words"*, %"class.std::locale" }
%"struct.std::ios_base::_Callback_list" = type { %"struct.std::ios_base::_Callback_list"*, void (i32, %"class.std::ios_base"*, i32)*, i32, i32 }
%"struct.std::ios_base::_Words" = type { i8*, i64 }
%"class.std::locale" = type { %"class.std::locale::_Impl"* }
%"class.std::locale::_Impl" = type { i32, %"class.std::locale::facet"**, i64, %"class.std::locale::facet"**, i8** }
%"class.std::locale::facet" = type <{ i32 (...)**, i32, [4 x i8] }>
%"class.std::basic_streambuf" = type { i32 (...)**, i8*, i8*, i8*, i8*, i8*, i8*, %"class.std::locale" }
%"class.std::ctype" = type <{ %"class.std::locale::facet.base", [4 x i8], %struct.__locale_struct*, i8, [7 x i8], i32*, i32*, i16*, i8, [256 x i8], [256 x i8], i8, [6 x i8] }>
%"class.std::locale::facet.base" = type <{ i32 (...)**, i32 }>
%struct.__locale_struct = type { [13 x %struct.__locale_data*], i16*, i32*, i32*, [13 x i8*] }
%struct.__locale_data = type opaque
%"class.std::num_put" = type { %"class.std::locale::facet.base", [4 x i8] }
%"class.std::num_get" = type { %"class.std::locale::facet.base", [4 x i8] }

@_ZStL8__ioinit = internal global %"class.std::ios_base::Init" zeroinitializer, align 1
@__dso_handle = external hidden global i8
@_ZSt4cout = external dso_local global %"class.std::basic_ostream", align 8
@.str = private unnamed_addr constant [2 x i8] c" \00", align 1
@llvm.global_ctors = appending global [1 x { i32, void ()*, i8* }] [{ i32, void ()*, i8* } { i32 65535, void ()* @_GLOBAL__sub_I_41.cpp, i8* null }]

; Function Attrs: noinline uwtable
define internal void @__cxx_global_var_init() #0 section ".text.startup" {
  call void @_ZNSt8ios_base4InitC1Ev(%"class.std::ios_base::Init"* @_ZStL8__ioinit)
  %1 = call i32 @__cxa_atexit(void (i8*)* bitcast (void (%"class.std::ios_base::Init"*)* @_ZNSt8ios_base4InitD1Ev to void (i8*)*), i8* getelementptr inbounds (%"class.std::ios_base::Init", %"class.std::ios_base::Init"* @_ZStL8__ioinit, i32 0, i32 0), i8* @__dso_handle) #3
  ret void
}

declare dso_local void @_ZNSt8ios_base4InitC1Ev(%"class.std::ios_base::Init"*) unnamed_addr #1

; Function Attrs: nounwind
declare dso_local void @_ZNSt8ios_base4InitD1Ev(%"class.std::ios_base::Init"*) unnamed_addr #2

; Function Attrs: nounwind
declare dso_local i32 @__cxa_atexit(void (i8*)*, i8*, i8*) #3

; Function Attrs: noinline norecurse uwtable
define dso_local i32 @main() #4 {
  %1 = alloca i32, align 4
  %2 = alloca i32, align 4
  %3 = alloca i32, align 4
  %4 = alloca i32, align 4
  %5 = alloca i32, align 4
  %6 = alloca i32, align 4
  %7 = alloca i32, align 4
  %8 = alloca i32, align 4
  %9 = alloca i32, align 4
  %10 = alloca i32, align 4
  %11 = alloca i32, align 4
  store i32 0, i32* %1, align 4
  store i32 1, i32* %2, align 4
  br label %12

12:                                               ; preds = %158, %0
  %13 = load i32, i32* %2, align 4
  %14 = icmp sle i32 %13, 5
  br i1 %14, label %15, label %161

15:                                               ; preds = %12
  store i32 1, i32* %3, align 4
  br label %16

16:                                               ; preds = %154, %15
  %17 = load i32, i32* %3, align 4
  %18 = icmp sle i32 %17, 5
  br i1 %18, label %19, label %157

19:                                               ; preds = %16
  store i32 1, i32* %4, align 4
  br label %20

20:                                               ; preds = %150, %19
  %21 = load i32, i32* %4, align 4
  %22 = icmp sle i32 %21, 5
  br i1 %22, label %23, label %153

23:                                               ; preds = %20
  store i32 1, i32* %5, align 4
  br label %24

24:                                               ; preds = %146, %23
  %25 = load i32, i32* %5, align 4
  %26 = icmp sle i32 %25, 5
  br i1 %26, label %27, label %149

27:                                               ; preds = %24
  store i32 1, i32* %6, align 4
  br label %28

28:                                               ; preds = %142, %27
  %29 = load i32, i32* %6, align 4
  %30 = icmp sle i32 %29, 5
  br i1 %30, label %31, label %145

31:                                               ; preds = %28
  %32 = load i32, i32* %2, align 4
  %33 = load i32, i32* %3, align 4
  %34 = icmp eq i32 %32, %33
  br i1 %34, label %77, label %35

35:                                               ; preds = %31
  %36 = load i32, i32* %2, align 4
  %37 = load i32, i32* %4, align 4
  %38 = icmp eq i32 %36, %37
  br i1 %38, label %77, label %39

39:                                               ; preds = %35
  %40 = load i32, i32* %2, align 4
  %41 = load i32, i32* %5, align 4
  %42 = icmp eq i32 %40, %41
  br i1 %42, label %77, label %43

43:                                               ; preds = %39
  %44 = load i32, i32* %2, align 4
  %45 = load i32, i32* %6, align 4
  %46 = icmp eq i32 %44, %45
  br i1 %46, label %77, label %47

47:                                               ; preds = %43
  %48 = load i32, i32* %3, align 4
  %49 = load i32, i32* %4, align 4
  %50 = icmp eq i32 %48, %49
  br i1 %50, label %77, label %51

51:                                               ; preds = %47
  %52 = load i32, i32* %3, align 4
  %53 = load i32, i32* %5, align 4
  %54 = icmp eq i32 %52, %53
  br i1 %54, label %77, label %55

55:                                               ; preds = %51
  %56 = load i32, i32* %3, align 4
  %57 = load i32, i32* %6, align 4
  %58 = icmp eq i32 %56, %57
  br i1 %58, label %77, label %59

59:                                               ; preds = %55
  %60 = load i32, i32* %4, align 4
  %61 = load i32, i32* %5, align 4
  %62 = icmp eq i32 %60, %61
  br i1 %62, label %77, label %63

63:                                               ; preds = %59
  %64 = load i32, i32* %4, align 4
  %65 = load i32, i32* %6, align 4
  %66 = icmp eq i32 %64, %65
  br i1 %66, label %77, label %67

67:                                               ; preds = %63
  %68 = load i32, i32* %5, align 4
  %69 = load i32, i32* %6, align 4
  %70 = icmp eq i32 %68, %69
  br i1 %70, label %77, label %71

71:                                               ; preds = %67
  %72 = load i32, i32* %6, align 4
  %73 = icmp eq i32 %72, 2
  br i1 %73, label %77, label %74

74:                                               ; preds = %71
  %75 = load i32, i32* %6, align 4
  %76 = icmp eq i32 %75, 3
  br i1 %76, label %77, label %78

77:                                               ; preds = %74, %71, %67, %63, %59, %55, %51, %47, %43, %39, %35, %31
  br label %142

78:                                               ; preds = %74
  %79 = load i32, i32* %6, align 4
  %80 = icmp eq i32 %79, 1
  %81 = zext i1 %80 to i32
  store i32 %81, i32* %7, align 4
  %82 = load i32, i32* %3, align 4
  %83 = icmp eq i32 %82, 2
  %84 = zext i1 %83 to i32
  store i32 %84, i32* %8, align 4
  %85 = load i32, i32* %2, align 4
  %86 = icmp eq i32 %85, 5
  %87 = zext i1 %86 to i32
  store i32 %87, i32* %9, align 4
  %88 = load i32, i32* %4, align 4
  %89 = icmp ne i32 %88, 1
  %90 = zext i1 %89 to i32
  store i32 %90, i32* %10, align 4
  %91 = load i32, i32* %5, align 4
  %92 = icmp eq i32 %91, 1
  %93 = zext i1 %92 to i32
  store i32 %93, i32* %11, align 4
  %94 = load i32, i32* %2, align 4
  %95 = load i32, i32* %7, align 4
  %96 = mul nsw i32 %94, %95
  %97 = load i32, i32* %3, align 4
  %98 = load i32, i32* %8, align 4
  %99 = mul nsw i32 %97, %98
  %100 = add nsw i32 %96, %99
  %101 = load i32, i32* %4, align 4
  %102 = load i32, i32* %9, align 4
  %103 = mul nsw i32 %101, %102
  %104 = add nsw i32 %100, %103
  %105 = load i32, i32* %5, align 4
  %106 = load i32, i32* %10, align 4
  %107 = mul nsw i32 %105, %106
  %108 = add nsw i32 %104, %107
  %109 = load i32, i32* %6, align 4
  %110 = load i32, i32* %11, align 4
  %111 = mul nsw i32 %109, %110
  %112 = add nsw i32 %108, %111
  %113 = icmp eq i32 %112, 3
  br i1 %113, label %114, label %141

114:                                              ; preds = %78
  %115 = load i32, i32* %7, align 4
  %116 = load i32, i32* %8, align 4
  %117 = add nsw i32 %115, %116
  %118 = load i32, i32* %9, align 4
  %119 = add nsw i32 %117, %118
  %120 = load i32, i32* %10, align 4
  %121 = add nsw i32 %119, %120
  %122 = load i32, i32* %11, align 4
  %123 = add nsw i32 %121, %122
  %124 = icmp eq i32 %123, 2
  br i1 %124, label %125, label %141

125:                                              ; preds = %114
  %126 = load i32, i32* %2, align 4
  %127 = call dereferenceable(272) %"class.std::basic_ostream"* @_ZNSolsEi(%"class.std::basic_ostream"* @_ZSt4cout, i32 %126)
  %128 = call dereferenceable(272) %"class.std::basic_ostream"* @_ZStlsISt11char_traitsIcEERSt13basic_ostreamIcT_ES5_PKc(%"class.std::basic_ostream"* dereferenceable(272) %127, i8* getelementptr inbounds ([2 x i8], [2 x i8]* @.str, i64 0, i64 0))
  %129 = load i32, i32* %3, align 4
  %130 = call dereferenceable(272) %"class.std::basic_ostream"* @_ZNSolsEi(%"class.std::basic_ostream"* %128, i32 %129)
  %131 = call dereferenceable(272) %"class.std::basic_ostream"* @_ZStlsISt11char_traitsIcEERSt13basic_ostreamIcT_ES5_PKc(%"class.std::basic_ostream"* dereferenceable(272) %130, i8* getelementptr inbounds ([2 x i8], [2 x i8]* @.str, i64 0, i64 0))
  %132 = load i32, i32* %4, align 4
  %133 = call dereferenceable(272) %"class.std::basic_ostream"* @_ZNSolsEi(%"class.std::basic_ostream"* %131, i32 %132)
  %134 = call dereferenceable(272) %"class.std::basic_ostream"* @_ZStlsISt11char_traitsIcEERSt13basic_ostreamIcT_ES5_PKc(%"class.std::basic_ostream"* dereferenceable(272) %133, i8* getelementptr inbounds ([2 x i8], [2 x i8]* @.str, i64 0, i64 0))
  %135 = load i32, i32* %5, align 4
  %136 = call dereferenceable(272) %"class.std::basic_ostream"* @_ZNSolsEi(%"class.std::basic_ostream"* %134, i32 %135)
  %137 = call dereferenceable(272) %"class.std::basic_ostream"* @_ZStlsISt11char_traitsIcEERSt13basic_ostreamIcT_ES5_PKc(%"class.std::basic_ostream"* dereferenceable(272) %136, i8* getelementptr inbounds ([2 x i8], [2 x i8]* @.str, i64 0, i64 0))
  %138 = load i32, i32* %6, align 4
  %139 = call dereferenceable(272) %"class.std::basic_ostream"* @_ZNSolsEi(%"class.std::basic_ostream"* %137, i32 %138)
  %140 = call dereferenceable(272) %"class.std::basic_ostream"* @_ZNSolsEPFRSoS_E(%"class.std::basic_ostream"* %139, %"class.std::basic_ostream"* (%"class.std::basic_ostream"*)* @_ZSt4endlIcSt11char_traitsIcEERSt13basic_ostreamIT_T0_ES6_)
  br label %141

141:                                              ; preds = %125, %114, %78
  br label %142

142:                                              ; preds = %141, %77
  %143 = load i32, i32* %6, align 4
  %144 = add nsw i32 %143, 1
  store i32 %144, i32* %6, align 4
  br label %28

145:                                              ; preds = %28
  br label %146

146:                                              ; preds = %145
  %147 = load i32, i32* %5, align 4
  %148 = add nsw i32 %147, 1
  store i32 %148, i32* %5, align 4
  br label %24

149:                                              ; preds = %24
  br label %150

150:                                              ; preds = %149
  %151 = load i32, i32* %4, align 4
  %152 = add nsw i32 %151, 1
  store i32 %152, i32* %4, align 4
  br label %20

153:                                              ; preds = %20
  br label %154

154:                                              ; preds = %153
  %155 = load i32, i32* %3, align 4
  %156 = add nsw i32 %155, 1
  store i32 %156, i32* %3, align 4
  br label %16

157:                                              ; preds = %16
  br label %158

158:                                              ; preds = %157
  %159 = load i32, i32* %2, align 4
  %160 = add nsw i32 %159, 1
  store i32 %160, i32* %2, align 4
  br label %12

161:                                              ; preds = %12
  ret i32 0
}

declare dso_local dereferenceable(272) %"class.std::basic_ostream"* @_ZStlsISt11char_traitsIcEERSt13basic_ostreamIcT_ES5_PKc(%"class.std::basic_ostream"* dereferenceable(272), i8*) #1

declare dso_local dereferenceable(272) %"class.std::basic_ostream"* @_ZNSolsEi(%"class.std::basic_ostream"*, i32) #1

declare dso_local dereferenceable(272) %"class.std::basic_ostream"* @_ZNSolsEPFRSoS_E(%"class.std::basic_ostream"*, %"class.std::basic_ostream"* (%"class.std::basic_ostream"*)*) #1

declare dso_local dereferenceable(272) %"class.std::basic_ostream"* @_ZSt4endlIcSt11char_traitsIcEERSt13basic_ostreamIT_T0_ES6_(%"class.std::basic_ostream"* dereferenceable(272)) #1

; Function Attrs: noinline uwtable
define internal void @_GLOBAL__sub_I_41.cpp() #0 section ".text.startup" {
  call void @__cxx_global_var_init()
  ret void
}


!llvm.module.flags = !{!0}
!llvm.ident = !{!1}

!0 = !{i32 1, !"wchar_size", i32 4}
!1 = !{!"clang version 10.0.0-4ubuntu1 "}
