; ModuleID = 'source-C-CXX/40/41.cpp'
source_filename = "source-C-CXX/40/41.cpp"
target datalayout = "e-m:e-p270:32:32-p271:32:32-p272:64:64-i64:64-f80:128-n8:16:32:64-S128"
target triple = "x86_64-pc-linux-gnu"

%"class.std::ios_base::Init" = type { i8 }
%"class.std::basic_ostream" = type { i32 (...)**, %"class.std::basic_ios" }
%"class.std::basic_ios" = type { %"class.std::ios_base", %"class.std::basic_ostream"*, i8, i8, %"class.std::basic_streambuf"*, %"class.std::ctype"*, %"class.std::num_put"*, %"class.std::num_get"* }
%"class.std::ios_base" = type { i32 (...)**, i64, i64, i32, i32, i32, %"struct.std::ios_base::_Callback_list"*, %"struct.std::ios_base::_Words", [8 x %"struct.std::ios_base::_Words"], i32, %"struct.std::ios_base::_Words"*, %"class.std::locale" }
%"struct.std::ios_base::_Callback_list" = type { %"struct.std::ios_base::_Callback_list"*, void (i32, %"class.std::ios_base"*, i32)*, i32, i32 }
%"struct.std::ios_base::_Words" = type { i8*, i64 }
%"class.std::locale" = type { %"class.std::locale::_Impl"* }
%"class.std::locale::_Impl" = type { i32, %"class.std::locale::facet"**, i64, %"class.std::locale::facet"**, i8** }
%"class.std::locale::facet" = type <{ i32 (...)**, i32, [4 x i8] }>
%"class.std::basic_streambuf" = type { i32 (...)**, i8*, i8*, i8*, i8*, i8*, i8*, %"class.std::locale" }
%"class.std::ctype" = type <{ %"class.std::locale::facet.base", [4 x i8], %struct.__locale_struct*, i8, [7 x i8], i32*, i32*, i16*, i8, [256 x i8], [256 x i8], i8, [6 x i8] }>
%"class.std::locale::facet.base" = type <{ i32 (...)**, i32 }>
%struct.__locale_struct = type { [13 x %struct.__locale_data*], i16*, i32*, i32*, [13 x i8*] }
%struct.__locale_data = type opaque
%"class.std::num_put" = type { %"class.std::locale::facet.base", [4 x i8] }
%"class.std::num_get" = type { %"class.std::locale::facet.base", [4 x i8] }

@_ZStL8__ioinit = internal global %"class.std::ios_base::Init" zeroinitializer, align 1
@__dso_handle = external hidden global i8
@_ZSt4cout = external global %"class.std::basic_ostream", align 8
@.str = private unnamed_addr constant [2 x i8] c" \00", align 1
@llvm.global_ctors = appending global [1 x { i32, void ()*, i8* }] [{ i32, void ()*, i8* } { i32 65535, void ()* @_GLOBAL__sub_I_41.cpp, i8* null }]

declare void @_ZNSt8ios_base4InitC1Ev(%"class.std::ios_base::Init"* nonnull align 1 dereferenceable(1)) unnamed_addr #0

; Function Attrs: nounwind
declare void @_ZNSt8ios_base4InitD1Ev(%"class.std::ios_base::Init"* nonnull align 1 dereferenceable(1)) unnamed_addr #1

; Function Attrs: nofree nounwind
declare i32 @__cxa_atexit(void (i8*)*, i8*, i8*) local_unnamed_addr #2

; Function Attrs: mustprogress norecurse sspstrong uwtable
define dso_local i32 @main() local_unnamed_addr #3 {
  br label %1

1:                                                ; preds = %0, %108
  %2 = phi i32 [ 1, %0 ], [ %109, %108 ]
  %3 = icmp eq i32 %2, 5
  %4 = zext i1 %3 to i32
  br label %5

5:                                                ; preds = %1, %105
  %6 = phi i32 [ 1, %1 ], [ %106, %105 ]
  %7 = icmp eq i32 %2, %6
  %8 = icmp eq i32 %6, 2
  %9 = select i1 %8, i32 2, i32 0
  %10 = zext i1 %8 to i32
  %11 = add nuw nsw i32 %10, %4
  br i1 %7, label %105, label %12

12:                                               ; preds = %5, %102
  %13 = phi i32 [ %103, %102 ], [ 1, %5 ]
  %14 = icmp eq i32 %2, %13
  %15 = icmp eq i32 %6, %13
  %16 = icmp ne i32 %13, 1
  %17 = select i1 %3, i32 %13, i32 0
  %18 = add nuw i32 %17, %9
  %19 = zext i1 %16 to i32
  %20 = add nuw nsw i32 %11, %19
  %21 = or i1 %14, %15
  br i1 %21, label %102, label %22

22:                                               ; preds = %12, %99
  %23 = phi i32 [ %100, %99 ], [ 1, %12 ]
  %24 = icmp eq i32 %2, %23
  %25 = icmp eq i32 %6, %23
  %26 = icmp eq i32 %13, %23
  %27 = icmp eq i32 %23, 1
  %28 = select i1 %16, i32 %23, i32 0
  %29 = add i32 %18, %28
  %30 = zext i1 %27 to i32
  %31 = add nuw nsw i32 %20, %30
  %32 = or i1 %26, %25
  %33 = or i1 %32, %24
  br i1 %33, label %99, label %34

34:                                               ; preds = %22, %96
  %35 = phi i32 [ %97, %96 ], [ 1, %22 ]
  %36 = icmp eq i32 %2, %35
  %37 = icmp eq i32 %6, %35
  %38 = select i1 %36, i1 true, i1 %37
  %39 = icmp eq i32 %13, %35
  %40 = select i1 %38, i1 true, i1 %39
  br i1 %40, label %96, label %41

41:                                               ; preds = %34
  %42 = icmp eq i32 %23, %35
  %43 = and i32 %35, 2147483646
  %44 = icmp eq i32 %43, 2
  %45 = or i1 %42, %44
  br i1 %45, label %96, label %46

46:                                               ; preds = %41
  %47 = icmp eq i32 %35, 1
  %48 = select i1 %47, i32 %2, i32 0
  %49 = select i1 %27, i32 %35, i32 0
  %50 = add i32 %29, %49
  %51 = add i32 %50, %48
  %52 = icmp eq i32 %51, 3
  br i1 %52, label %53, label %96

53:                                               ; preds = %46
  %54 = zext i1 %47 to i32
  %55 = add nuw nsw i32 %31, %54
  %56 = icmp eq i32 %55, 2
  br i1 %56, label %57, label %96

57:                                               ; preds = %53
  %58 = tail call nonnull align 8 dereferenceable(8) %"class.std::basic_ostream"* @_ZNSolsEi(%"class.std::basic_ostream"* nonnull align 8 dereferenceable(8) @_ZSt4cout, i32 %2)
  %59 = tail call nonnull align 8 dereferenceable(8) %"class.std::basic_ostream"* @_ZSt16__ostream_insertIcSt11char_traitsIcEERSt13basic_ostreamIT_T0_ES6_PKS3_l(%"class.std::basic_ostream"* nonnull align 8 dereferenceable(8) %58, i8* nonnull getelementptr inbounds ([2 x i8], [2 x i8]* @.str, i64 0, i64 0), i64 1)
  %60 = tail call nonnull align 8 dereferenceable(8) %"class.std::basic_ostream"* @_ZNSolsEi(%"class.std::basic_ostream"* nonnull align 8 dereferenceable(8) %58, i32 %6)
  %61 = tail call nonnull align 8 dereferenceable(8) %"class.std::basic_ostream"* @_ZSt16__ostream_insertIcSt11char_traitsIcEERSt13basic_ostreamIT_T0_ES6_PKS3_l(%"class.std::basic_ostream"* nonnull align 8 dereferenceable(8) %60, i8* nonnull getelementptr inbounds ([2 x i8], [2 x i8]* @.str, i64 0, i64 0), i64 1)
  %62 = tail call nonnull align 8 dereferenceable(8) %"class.std::basic_ostream"* @_ZNSolsEi(%"class.std::basic_ostream"* nonnull align 8 dereferenceable(8) %60, i32 %13)
  %63 = tail call nonnull align 8 dereferenceable(8) %"class.std::basic_ostream"* @_ZSt16__ostream_insertIcSt11char_traitsIcEERSt13basic_ostreamIT_T0_ES6_PKS3_l(%"class.std::basic_ostream"* nonnull align 8 dereferenceable(8) %62, i8* nonnull getelementptr inbounds ([2 x i8], [2 x i8]* @.str, i64 0, i64 0), i64 1)
  %64 = tail call nonnull align 8 dereferenceable(8) %"class.std::basic_ostream"* @_ZNSolsEi(%"class.std::basic_ostream"* nonnull align 8 dereferenceable(8) %62, i32 %23)
  %65 = tail call nonnull align 8 dereferenceable(8) %"class.std::basic_ostream"* @_ZSt16__ostream_insertIcSt11char_traitsIcEERSt13basic_ostreamIT_T0_ES6_PKS3_l(%"class.std::basic_ostream"* nonnull align 8 dereferenceable(8) %64, i8* nonnull getelementptr inbounds ([2 x i8], [2 x i8]* @.str, i64 0, i64 0), i64 1)
  %66 = tail call nonnull align 8 dereferenceable(8) %"class.std::basic_ostream"* @_ZNSolsEi(%"class.std::basic_ostream"* nonnull align 8 dereferenceable(8) %64, i32 %35)
  %67 = bitcast %"class.std::basic_ostream"* %66 to i8**
  %68 = load i8*, i8** %67, align 8, !tbaa !5
  %69 = getelementptr i8, i8* %68, i64 -24
  %70 = bitcast i8* %69 to i64*
  %71 = load i64, i64* %70, align 8
  %72 = bitcast %"class.std::basic_ostream"* %66 to i8*
  %73 = add nsw i64 %71, 240
  %74 = getelementptr inbounds i8, i8* %72, i64 %73
  %75 = bitcast i8* %74 to %"class.std::ctype"**
  %76 = load %"class.std::ctype"*, %"class.std::ctype"** %75, align 8, !tbaa !8
  %77 = icmp eq %"class.std::ctype"* %76, null
  br i1 %77, label %78, label %79

78:                                               ; preds = %57
  tail call void @_ZSt16__throw_bad_castv() #6
  unreachable

79:                                               ; preds = %57
  %80 = getelementptr inbounds %"class.std::ctype", %"class.std::ctype"* %76, i64 0, i32 8
  %81 = load i8, i8* %80, align 8, !tbaa !13
  %82 = icmp eq i8 %81, 0
  br i1 %82, label %86, label %83

83:                                               ; preds = %79
  %84 = getelementptr inbounds %"class.std::ctype", %"class.std::ctype"* %76, i64 0, i32 9, i64 10
  %85 = load i8, i8* %84, align 1, !tbaa !15
  br label %92

86:                                               ; preds = %79
  tail call void @_ZNKSt5ctypeIcE13_M_widen_initEv(%"class.std::ctype"* nonnull align 8 dereferenceable(570) %76)
  %87 = bitcast %"class.std::ctype"* %76 to i8 (%"class.std::ctype"*, i8)***
  %88 = load i8 (%"class.std::ctype"*, i8)**, i8 (%"class.std::ctype"*, i8)*** %87, align 8, !tbaa !5
  %89 = getelementptr inbounds i8 (%"class.std::ctype"*, i8)*, i8 (%"class.std::ctype"*, i8)** %88, i64 6
  %90 = load i8 (%"class.std::ctype"*, i8)*, i8 (%"class.std::ctype"*, i8)** %89, align 8
  %91 = tail call signext i8 %90(%"class.std::ctype"* nonnull align 8 dereferenceable(570) %76, i8 signext 10)
  br label %92

92:                                               ; preds = %83, %86
  %93 = phi i8 [ %85, %83 ], [ %91, %86 ]
  %94 = tail call nonnull align 8 dereferenceable(8) %"class.std::basic_ostream"* @_ZNSo3putEc(%"class.std::basic_ostream"* nonnull align 8 dereferenceable(8) %66, i8 signext %93)
  %95 = tail call nonnull align 8 dereferenceable(8) %"class.std::basic_ostream"* @_ZNSo5flushEv(%"class.std::basic_ostream"* nonnull align 8 dereferenceable(8) %94)
  br label %96

96:                                               ; preds = %46, %53, %92, %34, %41
  %97 = add nuw nsw i32 %35, 1
  %98 = icmp eq i32 %97, 6
  br i1 %98, label %99, label %34, !llvm.loop !16

99:                                               ; preds = %96, %22
  %100 = add nuw nsw i32 %23, 1
  %101 = icmp eq i32 %100, 6
  br i1 %101, label %102, label %22, !llvm.loop !18

102:                                              ; preds = %99, %12
  %103 = add nuw nsw i32 %13, 1
  %104 = icmp eq i32 %103, 6
  br i1 %104, label %105, label %12, !llvm.loop !19

105:                                              ; preds = %102, %5
  %106 = add nuw nsw i32 %6, 1
  %107 = icmp eq i32 %106, 6
  br i1 %107, label %108, label %5, !llvm.loop !20

108:                                              ; preds = %105
  %109 = add nuw nsw i32 %2, 1
  %110 = icmp eq i32 %109, 6
  br i1 %110, label %111, label %1, !llvm.loop !21

111:                                              ; preds = %108
  ret i32 0
}

declare nonnull align 8 dereferenceable(8) %"class.std::basic_ostream"* @_ZNSolsEi(%"class.std::basic_ostream"* nonnull align 8 dereferenceable(8), i32) local_unnamed_addr #0

declare nonnull align 8 dereferenceable(8) %"class.std::basic_ostream"* @_ZSt16__ostream_insertIcSt11char_traitsIcEERSt13basic_ostreamIT_T0_ES6_PKS3_l(%"class.std::basic_ostream"* nonnull align 8 dereferenceable(8), i8*, i64) local_unnamed_addr #0

declare nonnull align 8 dereferenceable(8) %"class.std::basic_ostream"* @_ZNSo3putEc(%"class.std::basic_ostream"* nonnull align 8 dereferenceable(8), i8 signext) local_unnamed_addr #0

declare nonnull align 8 dereferenceable(8) %"class.std::basic_ostream"* @_ZNSo5flushEv(%"class.std::basic_ostream"* nonnull align 8 dereferenceable(8)) local_unnamed_addr #0

; Function Attrs: noreturn
declare void @_ZSt16__throw_bad_castv() local_unnamed_addr #4

declare void @_ZNKSt5ctypeIcE13_M_widen_initEv(%"class.std::ctype"* nonnull align 8 dereferenceable(570)) local_unnamed_addr #0

; Function Attrs: sspstrong uwtable
define internal void @_GLOBAL__sub_I_41.cpp() #5 section ".text.startup" {
  tail call void @_ZNSt8ios_base4InitC1Ev(%"class.std::ios_base::Init"* nonnull align 1 dereferenceable(1) @_ZStL8__ioinit)
  %1 = tail call i32 @__cxa_atexit(void (i8*)* bitcast (void (%"class.std::ios_base::Init"*)* @_ZNSt8ios_base4InitD1Ev to void (i8*)*), i8* getelementptr inbounds (%"class.std::ios_base::Init", %"class.std::ios_base::Init"* @_ZStL8__ioinit, i64 0, i32 0), i8* nonnull @__dso_handle) #7
  ret void
}


!llvm.module.flags = !{!0, !1, !2, !3}
!llvm.ident = !{!4}

!0 = !{i32 1, !"wchar_size", i32 4}
!1 = !{i32 7, !"PIC Level", i32 2}
!2 = !{i32 7, !"PIE Level", i32 2}
!3 = !{i32 7, !"uwtable", i32 1}
!4 = !{!"clang version 13.0.0"}
!5 = !{!6, !6, i64 0}
!6 = !{!"vtable pointer", !7, i64 0}
!7 = !{!"Simple C++ TBAA"}
!8 = !{!9, !10, i64 240}
!9 = !{!"_ZTSSt9basic_iosIcSt11char_traitsIcEE", !10, i64 216, !11, i64 224, !12, i64 225, !10, i64 232, !10, i64 240, !10, i64 248, !10, i64 256}
!10 = !{!"any pointer", !11, i64 0}
!11 = !{!"omnipotent char", !7, i64 0}
!12 = !{!"bool", !11, i64 0}
!13 = !{!14, !11, i64 56}
!14 = !{!"_ZTSSt5ctypeIcE", !10, i64 16, !12, i64 24, !10, i64 32, !10, i64 40, !10, i64 48, !11, i64 56, !11, i64 57, !11, i64 313, !11, i64 569}
!15 = !{!11, !11, i64 0}
!16 = distinct !{!16, !17}
!17 = !{!"llvm.loop.mustprogress"}
!18 = distinct !{!18, !17}
!19 = distinct !{!19, !17}
!20 = distinct !{!20, !17}
!21 = distinct !{!21, !17}
